target datalayout = "e-m:e-p270:32:32-p271:32:32-p272:64:64-i64:64-i128:128-f80:128-n8:16:32:64-S128"
target triple = "x86_64-pc-linux-gnu"

%struct.noisy_dgram_st = type { i64, %struct.bio_msg_st, i64, i32, i32, %struct.bw_limiter_st, %struct.bw_limiter_st, ptr, ptr }
%struct.bio_msg_st = type { ptr, i64, ptr, ptr, i64 }
%struct.bw_limiter_st = type { [1024 x %struct.pkt_info_st], i64, i64, i64, i64 }
%struct.pkt_info_st = type { i64, %struct.OSSL_TIME }
%struct.OSSL_TIME = type { i64 }
%struct.bio_noise_now_cb_st = type { ptr, ptr }

@.str.1 = private unnamed_addr constant [40 x i8] c"../openssl/test/helpers/noisydgrambio.c\00", align 1
@.str.2 = private unnamed_addr constant [5 x i8] c"data\00", align 1

; Function Attrs: nounwind uwtable
define internal i64 @noisy_dgram_ctrl(ptr noundef %0, i32 noundef %1, i64 noundef %2, ptr noundef %3) #0 {
  %5 = alloca i64, align 8
  %6 = alloca ptr, align 8
  %7 = alloca i32, align 4
  %8 = alloca i64, align 8
  %9 = alloca ptr, align 8
  %10 = alloca i64, align 8
  %11 = alloca ptr, align 8
  %12 = alloca i32, align 4
  %13 = alloca ptr, align 8
  %14 = alloca ptr, align 8
  %15 = alloca ptr, align 8
  %16 = alloca ptr, align 8
  %17 = alloca ptr, align 8
  %18 = alloca ptr, align 8
  store ptr %0, ptr %6, align 8, !tbaa !9
  store i32 %1, ptr %7, align 4, !tbaa !11
  store i64 %2, ptr %8, align 8, !tbaa !13
  store ptr %3, ptr %9, align 8, !tbaa !15
  call void @llvm.lifetime.start.p0(i64 8, ptr %10) #5
  call void @llvm.lifetime.start.p0(i64 8, ptr %11) #5
  %19 = load ptr, ptr %6, align 8, !tbaa !9
  %20 = call ptr @BIO_next(ptr noundef %19)
  store ptr %20, ptr %11, align 8, !tbaa !9
  %21 = load ptr, ptr %11, align 8, !tbaa !9
  %22 = icmp eq ptr %21, null
  br i1 %22, label %23, label %24

23:                                               ; preds = %4
  store i64 0, ptr %5, align 8
  store i32 1, ptr %12, align 4
  br label %110

24:                                               ; preds = %4
  %25 = load i32, ptr %7, align 4, !tbaa !11
  switch i32 %25, label %102 [
    i32 12, label %26
    i32 1001, label %27
    i32 1002, label %39
    i32 1003, label %53
    i32 1004, label %67
    i32 1005, label %81
  ]

26:                                               ; preds = %24
  store i64 0, ptr %10, align 8, !tbaa !13
  br label %108

27:                                               ; preds = %24
  call void @llvm.lifetime.start.p0(i64 8, ptr %13) #5
  %28 = load ptr, ptr %6, align 8, !tbaa !9
  %29 = call ptr @BIO_get_data(ptr noundef %28)
  store ptr %29, ptr %13, align 8, !tbaa !16
  %30 = load ptr, ptr %13, align 8, !tbaa !16
  %31 = call i32 @test_ptr(ptr noundef @.str.1, i32 noundef 57, ptr noundef @.str.2, ptr noundef %30)
  %32 = icmp ne i32 %31, 0
  br i1 %32, label %34, label %33

33:                                               ; preds = %27
  store i64 0, ptr %5, align 8
  store i32 1, ptr %12, align 4
  br label %37

34:                                               ; preds = %27
  %35 = load ptr, ptr %13, align 8, !tbaa !16
  %36 = getelementptr inbounds nuw %struct.noisy_dgram_st, ptr %35, i32 0, i32 3
  store i32 1, ptr %36, align 8, !tbaa !18
  store i64 1, ptr %10, align 8, !tbaa !13
  store i32 2, ptr %12, align 4
  br label %37

37:                                               ; preds = %34, %33
  call void @llvm.lifetime.end.p0(i64 8, ptr %13) #5
  %38 = load i32, ptr %12, align 4
  switch i32 %38, label %110 [
    i32 2, label %108
  ]

39:                                               ; preds = %24
  call void @llvm.lifetime.start.p0(i64 8, ptr %14) #5
  %40 = load ptr, ptr %6, align 8, !tbaa !9
  %41 = call ptr @BIO_get_data(ptr noundef %40)
  store ptr %41, ptr %14, align 8, !tbaa !16
  %42 = load ptr, ptr %14, align 8, !tbaa !16
  %43 = call i32 @test_ptr(ptr noundef @.str.1, i32 noundef 67, ptr noundef @.str.2, ptr noundef %42)
  %44 = icmp ne i32 %43, 0
  br i1 %44, label %46, label %45

45:                                               ; preds = %39
  store i64 0, ptr %5, align 8
  store i32 1, ptr %12, align 4
  br label %51

46:                                               ; preds = %39
  %47 = load i64, ptr %8, align 8, !tbaa !13
  %48 = trunc i64 %47 to i32
  %49 = load ptr, ptr %14, align 8, !tbaa !16
  %50 = getelementptr inbounds nuw %struct.noisy_dgram_st, ptr %49, i32 0, i32 4
  store i32 %48, ptr %50, align 4, !tbaa !23
  store i64 1, ptr %10, align 8, !tbaa !13
  store i32 2, ptr %12, align 4
  br label %51

51:                                               ; preds = %46, %45
  call void @llvm.lifetime.end.p0(i64 8, ptr %14) #5
  %52 = load i32, ptr %12, align 4
  switch i32 %52, label %110 [
    i32 2, label %108
  ]

53:                                               ; preds = %24
  call void @llvm.lifetime.start.p0(i64 8, ptr %15) #5
  %54 = load ptr, ptr %6, align 8, !tbaa !9
  %55 = call ptr @BIO_get_data(ptr noundef %54)
  store ptr %55, ptr %15, align 8, !tbaa !16
  %56 = load ptr, ptr %15, align 8, !tbaa !16
  %57 = call i32 @test_ptr(ptr noundef @.str.1, i32 noundef 77, ptr noundef @.str.2, ptr noundef %56)
  %58 = icmp ne i32 %57, 0
  br i1 %58, label %60, label %59

59:                                               ; preds = %53
  store i64 0, ptr %5, align 8
  store i32 1, ptr %12, align 4
  br label %65

60:                                               ; preds = %53
  %61 = load i64, ptr %8, align 8, !tbaa !13
  %62 = load ptr, ptr %15, align 8, !tbaa !16
  %63 = getelementptr inbounds nuw %struct.noisy_dgram_st, ptr %62, i32 0, i32 5
  %64 = getelementptr inbounds nuw %struct.bw_limiter_st, ptr %63, i32 0, i32 4
  store i64 %61, ptr %64, align 8, !tbaa !24
  store i64 1, ptr %10, align 8, !tbaa !13
  store i32 2, ptr %12, align 4
  br label %65

65:                                               ; preds = %60, %59
  call void @llvm.lifetime.end.p0(i64 8, ptr %15) #5
  %66 = load i32, ptr %12, align 4
  switch i32 %66, label %110 [
    i32 2, label %108
  ]

67:                                               ; preds = %24
  call void @llvm.lifetime.start.p0(i64 8, ptr %16) #5
  %68 = load ptr, ptr %6, align 8, !tbaa !9
  %69 = call ptr @BIO_get_data(ptr noundef %68)
  store ptr %69, ptr %16, align 8, !tbaa !16
  %70 = load ptr, ptr %16, align 8, !tbaa !16
  %71 = call i32 @test_ptr(ptr noundef @.str.1, i32 noundef 87, ptr noundef @.str.2, ptr noundef %70)
  %72 = icmp ne i32 %71, 0
  br i1 %72, label %74, label %73

73:                                               ; preds = %67
  store i64 0, ptr %5, align 8
  store i32 1, ptr %12, align 4
  br label %79

74:                                               ; preds = %67
  %75 = load i64, ptr %8, align 8, !tbaa !13
  %76 = load ptr, ptr %16, align 8, !tbaa !16
  %77 = getelementptr inbounds nuw %struct.noisy_dgram_st, ptr %76, i32 0, i32 6
  %78 = getelementptr inbounds nuw %struct.bw_limiter_st, ptr %77, i32 0, i32 4
  store i64 %75, ptr %78, align 8, !tbaa !25
  store i64 1, ptr %10, align 8, !tbaa !13
  store i32 2, ptr %12, align 4
  br label %79

79:                                               ; preds = %74, %73
  call void @llvm.lifetime.end.p0(i64 8, ptr %16) #5
  %80 = load i32, ptr %12, align 4
  switch i32 %80, label %110 [
    i32 2, label %108
  ]

81:                                               ; preds = %24
  call void @llvm.lifetime.start.p0(i64 8, ptr %17) #5
  call void @llvm.lifetime.start.p0(i64 8, ptr %18) #5
  %82 = load ptr, ptr %9, align 8, !tbaa !15
  store ptr %82, ptr %18, align 8, !tbaa !26
  %83 = load ptr, ptr %6, align 8, !tbaa !9
  %84 = call ptr @BIO_get_data(ptr noundef %83)
  store ptr %84, ptr %17, align 8, !tbaa !16
  %85 = load ptr, ptr %17, align 8, !tbaa !16
  %86 = call i32 @test_ptr(ptr noundef @.str.1, i32 noundef 98, ptr noundef @.str.2, ptr noundef %85)
  %87 = icmp ne i32 %86, 0
  br i1 %87, label %89, label %88

88:                                               ; preds = %81
  store i64 0, ptr %5, align 8
  store i32 1, ptr %12, align 4
  br label %100

89:                                               ; preds = %81
  %90 = load ptr, ptr %18, align 8, !tbaa !26
  %91 = getelementptr inbounds nuw %struct.bio_noise_now_cb_st, ptr %90, i32 0, i32 0
  %92 = load ptr, ptr %91, align 8, !tbaa !28
  %93 = load ptr, ptr %17, align 8, !tbaa !16
  %94 = getelementptr inbounds nuw %struct.noisy_dgram_st, ptr %93, i32 0, i32 7
  store ptr %92, ptr %94, align 8, !tbaa !30
  %95 = load ptr, ptr %18, align 8, !tbaa !26
  %96 = getelementptr inbounds nuw %struct.bio_noise_now_cb_st, ptr %95, i32 0, i32 1
  %97 = load ptr, ptr %96, align 8, !tbaa !31
  %98 = load ptr, ptr %17, align 8, !tbaa !16
  %99 = getelementptr inbounds nuw %struct.noisy_dgram_st, ptr %98, i32 0, i32 8
  store ptr %97, ptr %99, align 8, !tbaa !32
  store i64 1, ptr %10, align 8, !tbaa !13
  store i32 2, ptr %12, align 4
  br label %100

100:                                              ; preds = %89, %88
  call void @llvm.lifetime.end.p0(i64 8, ptr %18) #5
  call void @llvm.lifetime.end.p0(i64 8, ptr %17) #5
  %101 = load i32, ptr %12, align 4
  switch i32 %101, label %110 [
    i32 2, label %108
  ]

102:                                              ; preds = %24
  %103 = load ptr, ptr %11, align 8, !tbaa !9
  %104 = load i32, ptr %7, align 4, !tbaa !11
  %105 = load i64, ptr %8, align 8, !tbaa !13
  %106 = load ptr, ptr %9, align 8, !tbaa !15
  %107 = call i64 @BIO_ctrl(ptr noundef %103, i32 noundef %104, i64 noundef %105, ptr noundef %106)
  store i64 %107, ptr %10, align 8, !tbaa !13
  br label %108

108:                                              ; preds = %102, %100, %79, %65, %51, %37, %26
  %109 = load i64, ptr %10, align 8, !tbaa !13
  store i64 %109, ptr %5, align 8
  store i32 1, ptr %12, align 4
  br label %110

110:                                              ; preds = %108, %100, %79, %65, %51, %37, %23
  call void @llvm.lifetime.end.p0(i64 8, ptr %11) #5
  call void @llvm.lifetime.end.p0(i64 8, ptr %10) #5
  %111 = load i64, ptr %5, align 8
  ret i64 %111
}