; Function Attrs: nounwind uwtable
define internal i64 @noisy_dgram_ctrl(ptr noundef %0, i32 noundef %1, i64 noundef %2, ptr noundef %3) #0 {
  %5 = tail call ptr @BIO_next(ptr noundef %0) #3
  %6 = icmp eq ptr %5, null
  br i1 %6, label %.critedge, label %7

7:                                                ; preds = %4
  switch i32 %1, label %38 [
    i32 12, label %.critedge
    i32 1001, label %8
    i32 1002, label %13
    i32 1003, label %19
    i32 1004, label %24
    i32 1005, label %29
  ]

8:                                                ; preds = %7
  %9 = tail call ptr @BIO_get_data(ptr noundef %0) #3
  %10 = tail call i32 @test_ptr(ptr noundef nonnull @.str.1, i32 noundef 57, ptr noundef nonnull @.str.2, ptr noundef %9) #3
  %.not.not54 = icmp eq i32 %10, 0
  br i1 %.not.not54, label %.critedge, label %11

11:                                               ; preds = %8
  %12 = getelementptr inbounds nuw i8, ptr %9, i64 56
  store i32 1, ptr %12, align 8, !tbaa !9
  br label %.critedge

13:                                               ; preds = %7
  %14 = tail call ptr @BIO_get_data(ptr noundef %0) #3
  %15 = tail call i32 @test_ptr(ptr noundef nonnull @.str.1, i32 noundef 67, ptr noundef nonnull @.str.2, ptr noundef %14) #3
  %.not.not53 = icmp eq i32 %15, 0
  br i1 %.not.not53, label %.critedge, label %16

16:                                               ; preds = %13
  %17 = trunc i64 %2 to i32
  %18 = getelementptr inbounds nuw i8, ptr %14, i64 60
  store i32 %17, ptr %18, align 4, !tbaa !16
  br label %.critedge

19:                                               ; preds = %7
  %20 = tail call ptr @BIO_get_data(ptr noundef %0) #3
  %21 = tail call i32 @test_ptr(ptr noundef nonnull @.str.1, i32 noundef 77, ptr noundef nonnull @.str.2, ptr noundef %20) #3
  %.not.not52 = icmp eq i32 %21, 0
  br i1 %.not.not52, label %.critedge, label %22

22:                                               ; preds = %19
  %23 = getelementptr inbounds nuw i8, ptr %20, i64 16472
  store i64 %2, ptr %23, align 8, !tbaa !17
  br label %.critedge

24:                                               ; preds = %7
  %25 = tail call ptr @BIO_get_data(ptr noundef %0) #3
  %26 = tail call i32 @test_ptr(ptr noundef nonnull @.str.1, i32 noundef 87, ptr noundef nonnull @.str.2, ptr noundef %25) #3
  %.not.not51 = icmp eq i32 %26, 0
  br i1 %.not.not51, label %.critedge, label %27

27:                                               ; preds = %24
  %28 = getelementptr inbounds nuw i8, ptr %25, i64 32888
  store i64 %2, ptr %28, align 8, !tbaa !18
  br label %.critedge

29:                                               ; preds = %7
  %30 = tail call ptr @BIO_get_data(ptr noundef %0) #3
  %31 = tail call i32 @test_ptr(ptr noundef nonnull @.str.1, i32 noundef 98, ptr noundef nonnull @.str.2, ptr noundef %30) #3
  %.not.not = icmp eq i32 %31, 0
  br i1 %.not.not, label %.critedge, label %32

32:                                               ; preds = %29
  %33 = load ptr, ptr %3, align 8, !tbaa !19
  %34 = getelementptr inbounds nuw i8, ptr %30, i64 32896
  store ptr %33, ptr %34, align 8, !tbaa !21
  %35 = getelementptr inbounds nuw i8, ptr %3, i64 8
  %36 = load ptr, ptr %35, align 8, !tbaa !22
  %37 = getelementptr inbounds nuw i8, ptr %30, i64 32904
  store ptr %36, ptr %37, align 8, !tbaa !23
  br label %.critedge

38:                                               ; preds = %7
  %39 = tail call i64 @BIO_ctrl(ptr noundef nonnull %5, i32 noundef %1, i64 noundef %2, ptr noundef %3) #3
  br label %.critedge

.critedge:                                        ; preds = %38, %7, %11, %16, %22, %27, %32, %29, %24, %19, %13, %8, %4
  %.0 = phi i64 [ 0, %4 ], [ 0, %8 ], [ 0, %13 ], [ 0, %19 ], [ 0, %24 ], [ 0, %29 ], [ %39, %38 ], [ 1, %32 ], [ 1, %27 ], [ 1, %22 ], [ 1, %16 ], [ 1, %11 ], [ 0, %7 ]
  ret i64 %.0
}